target datalayout = "e-m:e-p270:32:32-p271:32:32-p272:64:64-i64:64-i128:128-f80:128-n8:16:32:64-S128"
target triple = "x86_64-pc-linux-gnu"

%struct.UStringPrepKey = type { ptr, ptr }
%union.UElement = type { ptr }

; Function Attrs: mustprogress uwtable
define internal noundef i32 @_ZL9hashEntry8UElement(ptr %0) #0 {
  %2 = alloca %union.UElement, align 8
  %3 = alloca ptr, align 8
  %4 = alloca %union.UElement, align 8
  %5 = alloca %union.UElement, align 8
  %6 = alloca i32, align 4
  %7 = alloca %union.UElement, align 8
  %8 = alloca %union.UElement, align 8
  %9 = getelementptr inbounds nuw %union.UElement, ptr %2, i32 0, i32 0
  store ptr %0, ptr %9, align 8
  call void @llvm.lifetime.start.p0(i64 8, ptr %3) #13
  %10 = load ptr, ptr %2, align 8, !tbaa !43
  store ptr %10, ptr %3, align 8, !tbaa !89
  call void @llvm.lifetime.start.p0(i64 8, ptr %4) #13
  call void @llvm.lifetime.start.p0(i64 8, ptr %5) #13
  %11 = load ptr, ptr %3, align 8, !tbaa !89
  %12 = getelementptr inbounds nuw %struct.UStringPrepKey, ptr %11, i32 0, i32 0
  %13 = load ptr, ptr %12, align 8, !tbaa !13
  store ptr %13, ptr %4, align 8, !tbaa !43
  %14 = load ptr, ptr %3, align 8, !tbaa !89
  %15 = getelementptr inbounds nuw %struct.UStringPrepKey, ptr %14, i32 0, i32 1
  %16 = load ptr, ptr %15, align 8, !tbaa !15
  store ptr %16, ptr %5, align 8, !tbaa !43
  call void @llvm.lifetime.start.p0(i64 4, ptr %6) #13
  call void @llvm.memcpy.p0.p0.i64(ptr align 8 %7, ptr align 8 %4, i64 8, i1 false), !tbaa.struct !115
  %17 = getelementptr inbounds nuw %union.UElement, ptr %7, i32 0, i32 0
  %18 = load ptr, ptr %17, align 8
  %19 = call i32 @uhash_hashChars_77(ptr %18)
  call void @llvm.memcpy.p0.p0.i64(ptr align 8 %8, ptr align 8 %5, i64 8, i1 false), !tbaa.struct !115
  %20 = getelementptr inbounds nuw %union.UElement, ptr %8, i32 0, i32 0
  %21 = load ptr, ptr %20, align 8
  %22 = call i32 @uhash_hashChars_77(ptr %21)
  %23 = mul i32 37, %22
  %24 = add i32 %19, %23
  store i32 %24, ptr %6, align 4, !tbaa !25
  %25 = load i32, ptr %6, align 4, !tbaa !25
  call void @llvm.lifetime.end.p0(i64 4, ptr %6) #13
  call void @llvm.lifetime.end.p0(i64 8, ptr %5) #13
  call void @llvm.lifetime.end.p0(i64 8, ptr %4) #13
  call void @llvm.lifetime.end.p0(i64 8, ptr %3) #13
  ret i32 %25
}