; Function Attrs: mustprogress uwtable
define internal noundef i32 @_ZL9hashEntry8UElement(ptr readonly captures(none) %0) #0 {
  %2 = load ptr, ptr %0, align 8, !tbaa !12
  %3 = getelementptr inbounds nuw i8, ptr %0, i64 8
  %4 = load ptr, ptr %3, align 8, !tbaa !16
  %5 = tail call i32 @uhash_hashChars_77(ptr %2)
  %6 = tail call i32 @uhash_hashChars_77(ptr %4)
  %7 = mul i32 %6, 37
  %8 = add i32 %7, %5
  ret i32 %8
}